target datalayout = "e-m:e-p270:32:32-p271:32:32-p272:64:64-i64:64-i128:128-f80:128-n8:16:32:64-S128"
target triple = "x86_64-pc-linux-gnu"

%struct._lv_image_decoder_t = type { ptr, ptr, ptr, ptr, ptr, ptr, ptr }
%struct.lv_area_t = type { i32, i32, i32, i32 }
%struct._lv_image_decoder_dsc_t = type { ptr, %struct._lv_image_decoder_args_t, ptr, i32, %struct.lv_fs_file_t, %struct.lv_image_header_t, ptr, ptr, i32, i32, ptr, ptr, ptr, ptr }
%struct._lv_image_decoder_args_t = type { i8, i8, i8, i8, i8 }
%struct.lv_fs_file_t = type { ptr, ptr, ptr }
%struct.lv_image_header_t = type <{ i64, i32 }>
%struct._lv_svg_render_obj = type { ptr, i8, i32, ptr, %struct._lv_vector_draw_dsc_t, %struct._lv_matrix_t, ptr, ptr, ptr, ptr, ptr, ptr, ptr, ptr, ptr, ptr }
%struct._lv_vector_draw_dsc_t = type { %struct._lv_vector_fill_dsc_t, %struct._lv_vector_stroke_dsc_t, %struct._lv_matrix_t, i32, %struct.lv_area_t }
%struct._lv_vector_fill_dsc_t = type { i32, %struct.lv_color32_t, i8, i32, %struct._lv_draw_image_dsc_t, %struct._lv_vector_gradient_t, %struct._lv_matrix_t }
%struct.lv_color32_t = type { i8, i8, i8, i8 }
%struct._lv_draw_image_dsc_t = type { %struct.lv_draw_dsc_base_t, ptr, %struct.lv_image_header_t, i32, i32, i32, i32, i32, %struct.lv_point_t, %struct.lv_color_t, i8, i8, i8, ptr, %struct.lv_area_t, i32, ptr }
%struct.lv_draw_dsc_base_t = type { ptr, i32, i32, i32, ptr, i64, ptr }
%struct.lv_point_t = type { i32, i32 }
%struct.lv_color_t = type { i8, i8, i8 }
%struct._lv_vector_gradient_t = type { i32, [2 x %struct.lv_grad_stop_t], i16, float, float, float, float, float, float, float, i32 }
%struct.lv_grad_stop_t = type { %struct.lv_color_t, i8, i8 }
%struct._lv_vector_stroke_dsc_t = type { i32, %struct.lv_color32_t, i8, float, %struct._lv_array_t, i32, i32, i16, %struct._lv_vector_gradient_t, %struct._lv_matrix_t }
%struct._lv_array_t = type { ptr, i32, i32, i32, i8 }
%struct._lv_matrix_t = type { [3 x [3 x float]] }
%struct.lv_image_dsc_t = type { %struct.lv_image_header_t, i32, ptr, ptr }

@.str.1 = private unnamed_addr constant [4 x i8] c"svg\00", align 1
@.str.2 = private unnamed_addr constant [5 x i8] c"<svg\00", align 1
@.str.3 = private unnamed_addr constant [6 x i8] c"<?xml\00", align 1

; Function Attrs: nounwind uwtable
define internal zeroext i1 @valid_svg_data(ptr noundef %0, i32 noundef %1) #0 {
  %3 = alloca ptr, align 8
  %4 = alloca i32, align 4
  store ptr %0, ptr %3, align 8, !tbaa !28
  store i32 %1, ptr %4, align 4, !tbaa !26
  %5 = load i32, ptr %4, align 4, !tbaa !26
  %6 = icmp uge i32 %5, 4
  br i1 %6, label %7, label %11

7:                                                ; preds = %2
  %8 = load ptr, ptr %3, align 8, !tbaa !28
  %9 = call i32 @lv_memcmp(ptr noundef %8, ptr noundef @.str.2, i64 noundef 4)
  %10 = icmp eq i32 %9, 0
  br i1 %10, label %20, label %11

11:                                               ; preds = %7, %2
  %12 = load i32, ptr %4, align 4, !tbaa !26
  %13 = icmp uge i32 %12, 5
  br i1 %13, label %14, label %18

14:                                               ; preds = %11
  %15 = load ptr, ptr %3, align 8, !tbaa !28
  %16 = call i32 @lv_memcmp(ptr noundef %15, ptr noundef @.str.3, i64 noundef 5)
  %17 = icmp eq i32 %16, 0
  br label %18

18:                                               ; preds = %14, %11
  %19 = phi i1 [ false, %11 ], [ %17, %14 ]
  br label %20

20:                                               ; preds = %18, %7
  %21 = phi i1 [ true, %7 ], [ %19, %18 ]
  ret i1 %21
}

; Function Attrs: nounwind uwtable
define internal i32 @svg_decoder_info(ptr noundef %0, ptr noundef %1, ptr noundef %2) #0 {
  %4 = alloca i32, align 4
  %5 = alloca ptr, align 8
  %6 = alloca ptr, align 8
  %7 = alloca ptr, align 8
  %8 = alloca i32, align 4
  %9 = alloca i32, align 4
  %10 = alloca i32, align 4
  %11 = alloca ptr, align 8
  %12 = alloca ptr, align 8
  %13 = alloca i32, align 4
  %14 = alloca i32, align 4
  %15 = alloca i32, align 4
  %16 = alloca ptr, align 8
  %17 = alloca ptr, align 8
  %18 = alloca ptr, align 8
  %19 = alloca ptr, align 8
  %20 = alloca ptr, align 8
  %21 = alloca ptr, align 8
  %22 = alloca %struct.lv_area_t, align 4
  %23 = alloca ptr, align 8
  %24 = alloca i32, align 4
  store ptr %0, ptr %5, align 8, !tbaa !3
  store ptr %1, ptr %6, align 8, !tbaa !11
  store ptr %2, ptr %7, align 8, !tbaa !13
  call void @llvm.lifetime.start.p0(i64 4, ptr %8) #4
  %25 = load ptr, ptr %6, align 8, !tbaa !11
  %26 = getelementptr inbounds nuw %struct._lv_image_decoder_dsc_t, ptr %25, i32 0, i32 3
  %27 = load i32, ptr %26, align 8, !tbaa !14
  store i32 %27, ptr %8, align 4, !tbaa !26
  call void @llvm.lifetime.start.p0(i64 4, ptr %9) #4
  store i32 0, ptr %9, align 4, !tbaa !26
  call void @llvm.lifetime.start.p0(i64 4, ptr %10) #4
  store i32 0, ptr %10, align 4, !tbaa !26
  %28 = load i32, ptr %8, align 4, !tbaa !26
  %29 = icmp eq i32 %28, 1
  br i1 %29, label %33, label %30

30:                                               ; preds = %3
  %31 = load i32, ptr %8, align 4, !tbaa !26
  %32 = icmp eq i32 %31, 0
  br i1 %32, label %33, label %211

33:                                               ; preds = %30, %3
  call void @llvm.lifetime.start.p0(i64 8, ptr %11) #4
  %34 = load ptr, ptr %6, align 8, !tbaa !11
  %35 = getelementptr inbounds nuw %struct._lv_image_decoder_dsc_t, ptr %34, i32 0, i32 2
  %36 = load ptr, ptr %35, align 8, !tbaa !27
  store ptr %36, ptr %11, align 8, !tbaa !13
  call void @llvm.lifetime.start.p0(i64 8, ptr %12) #4
  store ptr null, ptr %12, align 8, !tbaa !28
  %37 = load i32, ptr %8, align 4, !tbaa !26
  %38 = icmp eq i32 %37, 1
  br i1 %38, label %39, label %149

39:                                               ; preds = %33
  %40 = load ptr, ptr %11, align 8, !tbaa !13
  %41 = call ptr @lv_fs_get_ext(ptr noundef %40)
  %42 = call i32 @lv_strcmp(ptr noundef %41, ptr noundef @.str.1)
  %43 = icmp ne i32 %42, 0
  br i1 %43, label %44, label %45

44:                                               ; preds = %39
  store i32 0, ptr %4, align 4
  store i32 1, ptr %13, align 4
  br label %210

45:                                               ; preds = %39
  call void @llvm.lifetime.start.p0(i64 4, ptr %14) #4
  call void @llvm.lifetime.start.p0(i64 4, ptr %15) #4
  %46 = call ptr @lv_zalloc(i64 noundef 256)
  store ptr %46, ptr %12, align 8, !tbaa !28
  br label %47

47:                                               ; preds = %45
  %48 = load ptr, ptr %12, align 8, !tbaa !28
  %49 = icmp ne ptr %48, null
  br i1 %49, label %56, label %50

50:                                               ; preds = %47
  br label %51

51:                                               ; preds = %50
  br label %52

52:                                               ; preds = %51
  br label %53

53:                                               ; preds = %52
  br label %54

54:                                               ; preds = %55, %53
  br label %55

55:                                               ; preds = %54
  br label %54

56:                                               ; preds = %47
  br label %57

57:                                               ; preds = %56
  br label %58

58:                                               ; preds = %57
  %59 = load ptr, ptr %6, align 8, !tbaa !11
  %60 = getelementptr inbounds nuw %struct._lv_image_decoder_dsc_t, ptr %59, i32 0, i32 4
  %61 = load ptr, ptr %12, align 8, !tbaa !28
  %62 = call i32 @lv_fs_read(ptr noundef %60, ptr noundef %61, i32 noundef 256, ptr noundef %14)
  store i32 %62, ptr %15, align 4, !tbaa !26
  %63 = load i32, ptr %15, align 4, !tbaa !26
  %64 = icmp ne i32 %63, 0
  br i1 %64, label %65, label %70

65:                                               ; preds = %58
  br label %66

66:                                               ; preds = %65
  br label %67

67:                                               ; preds = %66
  br label %68

68:                                               ; preds = %67
  %69 = load ptr, ptr %12, align 8, !tbaa !28
  call void @lv_free(ptr noundef %69)
  store i32 0, ptr %4, align 4
  store i32 1, ptr %13, align 4
  br label %146

70:                                               ; preds = %58
  %71 = load ptr, ptr %12, align 8, !tbaa !28
  %72 = load i32, ptr %14, align 4, !tbaa !26
  %73 = call zeroext i1 @valid_svg_data(ptr noundef %71, i32 noundef %72)
  br i1 %73, label %76, label %74

74:                                               ; preds = %70
  %75 = load ptr, ptr %12, align 8, !tbaa !28
  call void @lv_free(ptr noundef %75)
  store i32 0, ptr %4, align 4
  store i32 1, ptr %13, align 4
  br label %146

76:                                               ; preds = %70
  store i32 130, ptr %9, align 4, !tbaa !26
  store i32 130, ptr %10, align 4, !tbaa !26
  call void @llvm.lifetime.start.p0(i64 8, ptr %16) #4
  store ptr null, ptr %16, align 8, !tbaa !28
  call void @llvm.lifetime.start.p0(i64 8, ptr %17) #4
  store ptr null, ptr %17, align 8, !tbaa !28
  call void @llvm.lifetime.start.p0(i64 8, ptr %18) #4
  %77 = load ptr, ptr %12, align 8, !tbaa !28
  store ptr %77, ptr %18, align 8, !tbaa !28
  call void @llvm.lifetime.start.p0(i64 8, ptr %19) #4
  %78 = load ptr, ptr %12, align 8, !tbaa !28
  %79 = getelementptr inbounds i8, ptr %78, i64 255
  store ptr %79, ptr %19, align 8, !tbaa !28
  br label %80

80:                                               ; preds = %107, %76
  %81 = load ptr, ptr %18, align 8, !tbaa !28
  %82 = load ptr, ptr %19, align 8, !tbaa !28
  %83 = icmp ult ptr %81, %82
  br i1 %83, label %84, label %110

84:                                               ; preds = %80
  %85 = load ptr, ptr %18, align 8, !tbaa !28
  %86 = load i8, ptr %85, align 1, !tbaa !29
  %87 = zext i8 %86 to i32
  %88 = icmp eq i32 %87, 60
  br i1 %88, label %89, label %97

89:                                               ; preds = %84
  %90 = load ptr, ptr %18, align 8, !tbaa !28
  %91 = getelementptr inbounds i8, ptr %90, i64 1
  %92 = call i32 @lv_strncmp(ptr noundef %91, ptr noundef @.str.1, i64 noundef 3)
  %93 = icmp eq i32 %92, 0
  br i1 %93, label %94, label %96

94:                                               ; preds = %89
  %95 = load ptr, ptr %18, align 8, !tbaa !28
  store ptr %95, ptr %16, align 8, !tbaa !28
  br label %96

96:                                               ; preds = %94, %89
  br label %97

97:                                               ; preds = %96, %84
  %98 = load ptr, ptr %16, align 8, !tbaa !28
  %99 = icmp ne ptr %98, null
  br i1 %99, label %100, label %107

100:                                              ; preds = %97
  %101 = load ptr, ptr %18, align 8, !tbaa !28
  %102 = load i8, ptr %101, align 1, !tbaa !29
  %103 = zext i8 %102 to i32
  %104 = icmp eq i32 %103, 62
  br i1 %104, label %105, label %107

105:                                              ; preds = %100
  %106 = load ptr, ptr %18, align 8, !tbaa !28
  store ptr %106, ptr %17, align 8, !tbaa !28
  br label %110

107:                                              ; preds = %100, %97
  %108 = load ptr, ptr %18, align 8, !tbaa !28
  %109 = getelementptr inbounds nuw i8, ptr %108, i32 1
  store ptr %109, ptr %18, align 8, !tbaa !28
  br label %80, !llvm.loop !30

110:                                              ; preds = %105, %80
  %111 = load ptr, ptr %16, align 8, !tbaa !28
  %112 = icmp ne ptr %111, null
  br i1 %112, label %113, label %144

113:                                              ; preds = %110
  %114 = load ptr, ptr %17, align 8, !tbaa !28
  %115 = icmp ne ptr %114, null
  br i1 %115, label %116, label %144

116:                                              ; preds = %113
  call void @llvm.lifetime.start.p0(i64 8, ptr %20) #4
  %117 = load ptr, ptr %16, align 8, !tbaa !28
  %118 = load ptr, ptr %17, align 8, !tbaa !28
  %119 = load ptr, ptr %16, align 8, !tbaa !28
  %120 = ptrtoint ptr %118 to i64
  %121 = ptrtoint ptr %119 to i64
  %122 = sub i64 %120, %121
  %123 = trunc i64 %122 to i32
  %124 = call ptr @lv_svg_load_data(ptr noundef %117, i32 noundef %123)
  store ptr %124, ptr %20, align 8, !tbaa !13
  call void @llvm.lifetime.start.p0(i64 8, ptr %21) #4
  %125 = load ptr, ptr %20, align 8, !tbaa !13
  %126 = call ptr @lv_svg_render_create(ptr noundef %125)
  store ptr %126, ptr %21, align 8, !tbaa !32
  %127 = load ptr, ptr %21, align 8, !tbaa !32
  %128 = getelementptr inbounds nuw %struct._lv_svg_render_obj, ptr %127, i32 0, i32 1
  %129 = load i8, ptr %128, align 8, !tbaa !34
  %130 = sext i8 %129 to i32
  %131 = icmp eq i32 %130, 1
  br i1 %131, label %132, label %141

132:                                              ; preds = %116
  call void @llvm.lifetime.start.p0(i64 16, ptr %22) #4
  %133 = load ptr, ptr %21, align 8, !tbaa !32
  %134 = getelementptr inbounds nuw %struct._lv_svg_render_obj, ptr %133, i32 0, i32 13
  %135 = load ptr, ptr %134, align 8, !tbaa !54
  %136 = load ptr, ptr %21, align 8, !tbaa !32
  call void %135(ptr noundef %136, ptr noundef %22)
  %137 = call i32 @lv_area_get_width(ptr noundef %22)
  %138 = sub nsw i32 %137, 1
  store i32 %138, ptr %9, align 4, !tbaa !26
  %139 = call i32 @lv_area_get_height(ptr noundef %22)
  %140 = sub nsw i32 %139, 1
  store i32 %140, ptr %10, align 4, !tbaa !26
  call void @llvm.lifetime.end.p0(i64 16, ptr %22) #4
  br label %141

141:                                              ; preds = %132, %116
  %142 = load ptr, ptr %21, align 8, !tbaa !32
  call void @lv_svg_render_delete(ptr noundef %142)
  %143 = load ptr, ptr %20, align 8, !tbaa !13
  call void @lv_svg_node_delete(ptr noundef %143)
  call void @llvm.lifetime.end.p0(i64 8, ptr %21) #4
  call void @llvm.lifetime.end.p0(i64 8, ptr %20) #4
  br label %144

144:                                              ; preds = %141, %113, %110
  %145 = load ptr, ptr %12, align 8, !tbaa !28
  call void @lv_free(ptr noundef %145)
  call void @llvm.lifetime.end.p0(i64 8, ptr %19) #4
  call void @llvm.lifetime.end.p0(i64 8, ptr %18) #4
  call void @llvm.lifetime.end.p0(i64 8, ptr %17) #4
  call void @llvm.lifetime.end.p0(i64 8, ptr %16) #4
  store i32 0, ptr %13, align 4
  br label %146

146:                                              ; preds = %144, %74, %68
  call void @llvm.lifetime.end.p0(i64 4, ptr %15) #4
  call void @llvm.lifetime.end.p0(i64 4, ptr %14) #4
  %147 = load i32, ptr %13, align 4
  switch i32 %147, label %210 [
    i32 0, label %148
  ]

148:                                              ; preds = %146
  br label %175

149:                                              ; preds = %33
  call void @llvm.lifetime.start.p0(i64 8, ptr %23) #4
  %150 = load ptr, ptr %11, align 8, !tbaa !13
  store ptr %150, ptr %23, align 8, !tbaa !13
  call void @llvm.lifetime.start.p0(i64 4, ptr %24) #4
  %151 = load ptr, ptr %23, align 8, !tbaa !13
  %152 = getelementptr inbounds nuw %struct.lv_image_dsc_t, ptr %151, i32 0, i32 1
  %153 = load i32, ptr %152, align 4, !tbaa !55
  store i32 %153, ptr %24, align 4, !tbaa !26
  %154 = load ptr, ptr %23, align 8, !tbaa !13
  %155 = getelementptr inbounds nuw %struct.lv_image_dsc_t, ptr %154, i32 0, i32 0
  %156 = load i64, ptr %155, align 8
  %157 = lshr i64 %156, 32
  %158 = and i64 %157, 65535
  %159 = trunc i64 %158 to i32
  store i32 %159, ptr %9, align 4, !tbaa !26
  %160 = load ptr, ptr %23, align 8, !tbaa !13
  %161 = getelementptr inbounds nuw %struct.lv_image_dsc_t, ptr %160, i32 0, i32 0
  %162 = load i64, ptr %161, align 8
  %163 = lshr i64 %162, 48
  %164 = trunc i64 %163 to i32
  store i32 %164, ptr %10, align 4, !tbaa !26
  %165 = load ptr, ptr %23, align 8, !tbaa !13
  %166 = getelementptr inbounds nuw %struct.lv_image_dsc_t, ptr %165, i32 0, i32 2
  %167 = load ptr, ptr %166, align 8, !tbaa !57
  %168 = load i32, ptr %24, align 4, !tbaa !26
  %169 = call zeroext i1 @valid_svg_data(ptr noundef %167, i32 noundef %168)
  br i1 %169, label %171, label %170

170:                                              ; preds = %149
  store i32 0, ptr %4, align 4
  store i32 1, ptr %13, align 4
  br label %172

171:                                              ; preds = %149
  store i32 0, ptr %13, align 4
  br label %172

172:                                              ; preds = %171, %170
  call void @llvm.lifetime.end.p0(i64 4, ptr %24) #4
  call void @llvm.lifetime.end.p0(i64 8, ptr %23) #4
  %173 = load i32, ptr %13, align 4
  switch i32 %173, label %210 [
    i32 0, label %174
  ]

174:                                              ; preds = %172
  br label %175

175:                                              ; preds = %174, %148
  %176 = load ptr, ptr %7, align 8, !tbaa !13
  %177 = load i64, ptr %176, align 4
  %178 = and i64 %177, -65281
  %179 = or i64 %178, 4096
  store i64 %179, ptr %176, align 4
  %180 = load i32, ptr %9, align 4, !tbaa !26
  %181 = load ptr, ptr %7, align 8, !tbaa !13
  %182 = zext i32 %180 to i64
  %183 = load i64, ptr %181, align 4
  %184 = and i64 %182, 65535
  %185 = shl i64 %184, 32
  %186 = and i64 %183, -281470681743361
  %187 = or i64 %186, %185
  store i64 %187, ptr %181, align 4
  %188 = load i32, ptr %10, align 4, !tbaa !26
  %189 = load ptr, ptr %7, align 8, !tbaa !13
  %190 = zext i32 %188 to i64
  %191 = load i64, ptr %189, align 4
  %192 = and i64 %190, 65535
  %193 = shl i64 %192, 48
  %194 = and i64 %191, 281474976710655
  %195 = or i64 %194, %193
  store i64 %195, ptr %189, align 4
  %196 = load ptr, ptr %7, align 8, !tbaa !13
  %197 = load i64, ptr %196, align 4
  %198 = lshr i64 %197, 16
  %199 = and i64 %198, 65535
  %200 = trunc i64 %199 to i32
  %201 = or i32 %200, 64
  %202 = zext i32 %201 to i64
  %203 = load i64, ptr %196, align 4
  %204 = and i64 %202, 65535
  %205 = shl i64 %204, 16
  %206 = and i64 %203, -4294901761
  %207 = or i64 %206, %205
  store i64 %207, ptr %196, align 4
  %208 = load ptr, ptr %5, align 8, !tbaa !3
  %209 = getelementptr inbounds nuw %struct._lv_image_decoder_t, ptr %208, i32 0, i32 4
  store ptr @svg_draw, ptr %209, align 8, !tbaa !58
  store i32 1, ptr %4, align 4
  store i32 1, ptr %13, align 4
  br label %210

210:                                              ; preds = %175, %172, %146, %44
  call void @llvm.lifetime.end.p0(i64 8, ptr %12) #4
  call void @llvm.lifetime.end.p0(i64 8, ptr %11) #4
  br label %212

211:                                              ; preds = %30
  store i32 0, ptr %4, align 4
  store i32 1, ptr %13, align 4
  br label %212

212:                                              ; preds = %211, %210
  call void @llvm.lifetime.end.p0(i64 4, ptr %10) #4
  call void @llvm.lifetime.end.p0(i64 4, ptr %9) #4
  call void @llvm.lifetime.end.p0(i64 4, ptr %8) #4
  %213 = load i32, ptr %4, align 4
  ret i32 %213
}