; Function Attrs: nounwind uwtable
define internal range(i32 0, 2) i32 @svg_decoder_info(ptr noundef writeonly captures(none) %0, ptr noundef %1, ptr noundef captures(none) %2) #0 {
  %4 = alloca i32, align 4
  %5 = alloca %struct.lv_area_t, align 4
  %6 = getelementptr inbounds nuw i8, ptr %1, i64 24
  %7 = load i32, ptr %6, align 8, !tbaa !9
  %or.cond = icmp ult i32 %7, 2
  br i1 %or.cond, label %8, label %valid_svg_data.exit75.thread

8:                                                ; preds = %3
  %9 = icmp eq i32 %7, 1
  %10 = getelementptr inbounds nuw i8, ptr %1, i64 16
  %11 = load ptr, ptr %10, align 8, !tbaa !22
  br i1 %9, label %12, label %58

12:                                               ; preds = %8
  %13 = tail call ptr @lv_fs_get_ext(ptr noundef %11) #4
  %14 = tail call i32 @lv_strcmp(ptr noundef %13, ptr noundef nonnull @.str.1) #4
  %.not = icmp eq i32 %14, 0
  br i1 %.not, label %15, label %valid_svg_data.exit75.thread

15:                                               ; preds = %12
  call void @llvm.lifetime.start.p0(i64 4, ptr nonnull %4) #4
  %16 = tail call ptr @lv_zalloc(i64 noundef 256) #4
  %.not71 = icmp eq ptr %16, null
  br i1 %.not71, label %.preheader, label %17

.preheader:                                       ; preds = %15, %.preheader
  br label %.preheader

17:                                               ; preds = %15
  %18 = getelementptr inbounds nuw i8, ptr %1, i64 32
  %19 = call i32 @lv_fs_read(ptr noundef nonnull %18, ptr noundef nonnull %16, i32 noundef 256, ptr noundef nonnull %4) #4
  %.not72 = icmp eq i32 %19, 0
  br i1 %.not72, label %20, label %.thread84

20:                                               ; preds = %17
  %21 = load i32, ptr %4, align 4, !tbaa !23
  %22 = icmp ugt i32 %21, 3
  br i1 %22, label %23, label %.thread84

23:                                               ; preds = %20
  %24 = call i32 @lv_memcmp(ptr noundef nonnull %16, ptr noundef nonnull @.str.2, i64 noundef 4) #4
  %25 = icmp eq i32 %24, 0
  br i1 %25, label %valid_svg_data.exit.preheader.preheader, label %26

26:                                               ; preds = %23
  %.not.i = icmp eq i32 %21, 4
  br i1 %.not.i, label %.thread84, label %27

27:                                               ; preds = %26
  %28 = call i32 @lv_memcmp(ptr noundef nonnull %16, ptr noundef nonnull @.str.3, i64 noundef 5) #4
  %29 = icmp eq i32 %28, 0
  br i1 %29, label %valid_svg_data.exit.preheader.preheader, label %.thread84

valid_svg_data.exit.preheader.preheader:          ; preds = %27, %23
  br label %valid_svg_data.exit.preheader

valid_svg_data.exit.preheader:                    ; preds = %valid_svg_data.exit.preheader.preheader, %valid_svg_data.exit
  %.065.idx91 = phi i64 [ %.065.add, %valid_svg_data.exit ], [ 0, %valid_svg_data.exit.preheader.preheader ]
  %.06790 = phi ptr [ %.26979, %valid_svg_data.exit ], [ null, %valid_svg_data.exit.preheader.preheader ]
  %.065.ptr92 = getelementptr inbounds nuw i8, ptr %16, i64 %.065.idx91
  %30 = load i8, ptr %.065.ptr92, align 1, !tbaa !24
  %31 = icmp eq i8 %30, 60
  br i1 %31, label %32, label %36

32:                                               ; preds = %valid_svg_data.exit.preheader
  %33 = getelementptr inbounds nuw i8, ptr %.065.ptr92, i64 1
  %34 = call i32 @lv_strncmp(ptr noundef nonnull %33, ptr noundef nonnull @.str.1, i64 noundef 3) #4
  %35 = icmp eq i32 %34, 0
  br i1 %35, label %.thread, label %36

36:                                               ; preds = %32, %valid_svg_data.exit.preheader
  %.not73 = icmp eq ptr %.06790, null
  br i1 %.not73, label %valid_svg_data.exit, label %.thread

.thread:                                          ; preds = %32, %36
  %.26978 = phi ptr [ %.06790, %36 ], [ %.065.ptr92, %32 ]
  %37 = load i8, ptr %.065.ptr92, align 1, !tbaa !24
  %38 = icmp eq i8 %37, 62
  br i1 %38, label %39, label %valid_svg_data.exit

valid_svg_data.exit:                              ; preds = %.thread, %36
  %.26979 = phi ptr [ %.26978, %.thread ], [ null, %36 ]
  %.065.add = add nuw nsw i64 %.065.idx91, 1
  %exitcond.not = icmp eq i64 %.065.add, 255
  br i1 %exitcond.not, label %.thread80, label %valid_svg_data.exit.preheader, !llvm.loop !25

39:                                               ; preds = %.thread
  %40 = ptrtoint ptr %.065.ptr92 to i64
  %41 = ptrtoint ptr %.26978 to i64
  %42 = sub i64 %40, %41
  %43 = trunc i64 %42 to i32
  %44 = call ptr @lv_svg_load_data(ptr noundef nonnull %.26978, i32 noundef %43) #4
  %45 = call ptr @lv_svg_render_create(ptr noundef %44) #4
  %46 = getelementptr inbounds nuw i8, ptr %45, i64 8
  %47 = load i8, ptr %46, align 8, !tbaa !27
  %48 = icmp eq i8 %47, 1
  br i1 %48, label %49, label %57

49:                                               ; preds = %39
  call void @llvm.lifetime.start.p0(i64 16, ptr nonnull %5) #4
  %50 = getelementptr inbounds nuw i8, ptr %45, i64 560
  %51 = load ptr, ptr %50, align 8, !tbaa !48
  call void %51(ptr noundef nonnull %45, ptr noundef nonnull %5) #4
  %52 = call i32 @lv_area_get_width(ptr noundef nonnull %5) #4
  %53 = add i32 %52, 65535
  %54 = call i32 @lv_area_get_height(ptr noundef nonnull %5) #4
  %55 = add nsw i32 %54, -1
  call void @llvm.lifetime.end.p0(i64 16, ptr nonnull %5) #4
  %56 = and i32 %53, 65535
  br label %57

57:                                               ; preds = %49, %39
  %.261 = phi i32 [ %55, %49 ], [ 130, %39 ]
  %.257 = phi i32 [ %56, %49 ], [ 130, %39 ]
  call void @lv_svg_render_delete(ptr noundef nonnull %45) #4
  call void @lv_svg_node_delete(ptr noundef %44) #4
  br label %.thread80

.thread84:                                        ; preds = %27, %26, %20, %17
  call void @lv_free(ptr noundef nonnull %16) #4
  call void @llvm.lifetime.end.p0(i64 4, ptr nonnull %4) #4
  br label %valid_svg_data.exit75.thread

.thread80:                                        ; preds = %valid_svg_data.exit, %57
  %.160 = phi i32 [ %.261, %57 ], [ 130, %valid_svg_data.exit ]
  %.156 = phi i32 [ %.257, %57 ], [ 130, %valid_svg_data.exit ]
  call void @lv_free(ptr noundef nonnull %16) #4
  call void @llvm.lifetime.end.p0(i64 4, ptr nonnull %4) #4
  br label %valid_svg_data.exit75.thread88

58:                                               ; preds = %8
  %59 = getelementptr inbounds nuw i8, ptr %11, i64 12
  %60 = load i32, ptr %59, align 4, !tbaa !49
  %61 = load i64, ptr %11, align 8
  %62 = lshr i64 %61, 32
  %63 = trunc nuw i64 %62 to i32
  %64 = and i32 %63, 65535
  %65 = lshr i64 %61, 48
  %66 = trunc nuw nsw i64 %65 to i32
  %67 = getelementptr inbounds nuw i8, ptr %11, i64 16
  %68 = load ptr, ptr %67, align 8, !tbaa !51
  %69 = icmp ugt i32 %60, 3
  br i1 %69, label %70, label %valid_svg_data.exit75.thread

70:                                               ; preds = %58
  %71 = tail call i32 @lv_memcmp(ptr noundef %68, ptr noundef nonnull @.str.2, i64 noundef 4) #4
  %72 = icmp eq i32 %71, 0
  br i1 %72, label %valid_svg_data.exit75.thread88, label %73

73:                                               ; preds = %70
  %.not.i74 = icmp eq i32 %60, 4
  br i1 %.not.i74, label %valid_svg_data.exit75.thread, label %valid_svg_data.exit75

valid_svg_data.exit75:                            ; preds = %73
  %74 = tail call i32 @lv_memcmp(ptr noundef %68, ptr noundef nonnull @.str.3, i64 noundef 5) #4
  %75 = icmp eq i32 %74, 0
  br i1 %75, label %valid_svg_data.exit75.thread88, label %valid_svg_data.exit75.thread

valid_svg_data.exit75.thread88:                   ; preds = %70, %.thread80, %valid_svg_data.exit75
  %.362 = phi i32 [ %.160, %.thread80 ], [ %66, %valid_svg_data.exit75 ], [ %66, %70 ]
  %.358 = phi i32 [ %.156, %.thread80 ], [ %64, %valid_svg_data.exit75 ], [ %64, %70 ]
  %76 = load i64, ptr %2, align 4
  %77 = zext nneg i32 %.358 to i64
  %78 = shl nuw nsw i64 %77, 32
  %79 = and i32 %.362, 65535
  %80 = zext nneg i32 %79 to i64
  %81 = shl nuw i64 %80, 48
  %82 = add nuw nsw i64 %78, %81
  %83 = and i64 %76, 4290707711
  %84 = or disjoint i64 %82, %83
  %85 = or disjoint i64 %84, 4198400
  store i64 %85, ptr %2, align 4
  %86 = getelementptr inbounds nuw i8, ptr %0, i64 32
  store ptr @svg_draw, ptr %86, align 8, !tbaa !52
  br label %valid_svg_data.exit75.thread

valid_svg_data.exit75.thread:                     ; preds = %58, %73, %.thread84, %3, %valid_svg_data.exit75.thread88, %valid_svg_data.exit75, %12
  %.3 = phi i32 [ 1, %valid_svg_data.exit75.thread88 ], [ 0, %valid_svg_data.exit75 ], [ 0, %12 ], [ 0, %3 ], [ 0, %.thread84 ], [ 0, %73 ], [ 0, %58 ]
  ret i32 %.3
}